EXPORTS
	??0CObexUtilsOpaqueData@@QAE@ABVTDesC8@@@Z @ 1 NONAME ; CObexUtilsOpaqueData::CObexUtilsOpaqueData(class TDesC8 const &)
	?CancelProgressDialogL@CObexUtilsDialog@@QAEXXZ @ 2 NONAME ; void CObexUtilsDialog::CancelProgressDialogL(void)
	?CancelWaitDialogL@CObexUtilsDialog@@QAEXXZ @ 3 NONAME ; void CObexUtilsDialog::CancelWaitDialogL(void)
	?ContextIcon@TObexUtilsUiLayer@@SAHABVTMsvEntry@@W4TContextMedia@@@Z @ 4 NONAME ; int TObexUtilsUiLayer::ContextIcon(class TMsvEntry const &, enum TContextMedia)
	?CreateDefaultMtmServiceL@TObexUtilsMessageHandler@@SAXVTUid@@@Z @ 5 NONAME ; void TObexUtilsMessageHandler::CreateDefaultMtmServiceL(class TUid)
	?CreateIconsL@TObexUtilsUiLayer@@SAXVTUid@@PAV?$CArrayPtr@V?$CArrayPtr@VCFbsBitmap@@@@@@@Z @ 6 NONAME ; void TObexUtilsUiLayer::CreateIconsL(class TUid, class CArrayPtr<class CArrayPtr<class CFbsBitmap> > *)
	?CreateInboxAttachmentL@TObexUtilsMessageHandler@@SAXAAPAVCObexBufObject@@VTUid@@AAJAAVRFile@@@Z @ 7 NONAME ; void TObexUtilsMessageHandler::CreateInboxAttachmentL(class CObexBufObject * &, class TUid, long &, class RFile &)
	?CreateOutboxEntryL@TObexUtilsMessageHandler@@SAJABVTUid@@ABH@Z @ 8 NONAME ; long TObexUtilsMessageHandler::CreateOutboxEntryL(class TUid const &, int const &)
	?DeleteOutboxEntryL@TObexUtilsMessageHandler@@SAXABJ@Z @ 9 NONAME ; void TObexUtilsMessageHandler::DeleteOutboxEntryL(long const &)
	?GetCenRepKeyIntValueL@TObexUtilsMessageHandler@@SAHVTUid@@KAAH@Z @ 10 NONAME ; int TObexUtilsMessageHandler::GetCenRepKeyIntValueL(class TUid, unsigned long, int &)
	?GetFileSystemStatus@TObexUtilsMessageHandler@@SAHXZ @ 11 NONAME ; int TObexUtilsMessageHandler::GetFileSystemStatus(void)
	?GetMessageCentreDriveL@TObexUtilsMessageHandler@@SAHXZ @ 12 NONAME ; int TObexUtilsMessageHandler::GetMessageCentreDriveL(void)
	?GetMmcFileSystemStatus@TObexUtilsMessageHandler@@SAHXZ @ 13 NONAME ; int TObexUtilsMessageHandler::GetMmcFileSystemStatus(void)
	?GetNumber@CObexUtilsOpaqueData@@QAEHAAI@Z @ 14 NONAME ; int CObexUtilsOpaqueData::GetNumber(unsigned int &)
	?GetPubSubKeyIntValue@TObexUtilsMessageHandler@@SAHVTUid@@IAAH@Z @ 15 NONAME ; int TObexUtilsMessageHandler::GetPubSubKeyIntValue(class TUid, unsigned int, int &)
	?GetString@CObexUtilsOpaqueData@@QAEHAAV?$TBuf8@$0BAA@@@@Z @ 16 NONAME ; int CObexUtilsOpaqueData::GetString(class TBuf8<256> &)
	?IsString@CObexUtilsOpaqueData@@QAEHXZ @ 17 NONAME ; int CObexUtilsOpaqueData::IsString(void)
	?LaunchEditorApplicationL@TObexUtilsUiLayer@@SAHPAVCMsvEntry@@AAVCMsvSession@@@Z @ 18 NONAME ; int TObexUtilsUiLayer::LaunchEditorApplicationL(class CMsvEntry *, class CMsvSession &)
	?LaunchEditorApplicationOperationL@TObexUtilsUiLayer@@SAPAVCMsvOperation@@AAVCMsvSession@@PAVCMsvEntry@@AAVTRequestStatus@@@Z @ 19 NONAME ; class CMsvOperation * TObexUtilsUiLayer::LaunchEditorApplicationOperationL(class CMsvSession &, class CMsvEntry *, class TRequestStatus &)
	?LaunchProgressDialogL@CObexUtilsDialog@@QAEXPAVMObexUtilsProgressObserver@@HHH@Z @ 20 NONAME ; void CObexUtilsDialog::LaunchProgressDialogL(class MObexUtilsProgressObserver *, int, int, int)
	?LaunchQueryDialogL@CObexUtilsDialog@@QAEHABH@Z @ 21 NONAME ; int CObexUtilsDialog::LaunchQueryDialogL(int const &)
	?LaunchWaitDialogL@CObexUtilsDialog@@QAEXH@Z @ 22 NONAME ; void CObexUtilsDialog::LaunchWaitDialogL(int)
	?NewL@CGlobalDialog@@SAPAV1@PAVMGlobalNoteCallback@@@Z @ 23 NONAME ; class CGlobalDialog * CGlobalDialog::NewL(class MGlobalNoteCallback *)
	?NewL@CGlobalProgressDialog@@SAPAV1@PAVMGlobalProgressCallback@@@Z @ 24 NONAME ; class CGlobalProgressDialog * CGlobalProgressDialog::NewL(class MGlobalProgressCallback *)
	?NewL@CObexUtilsDialog@@SAPAV1@PAVMObexUtilsDialogObserver@@@Z @ 25 NONAME ; class CObexUtilsDialog * CObexUtilsDialog::NewL(class MObexUtilsDialogObserver *)
	?NewL@CObexUtilsPropertyNotifier@@SAPAV1@PAVMObexUtilsPropertyNotifyHandler@@W4TMemoryPropertyCheckType@@@Z @ 26 NONAME ; class CObexUtilsPropertyNotifier * CObexUtilsPropertyNotifier::NewL(class MObexUtilsPropertyNotifyHandler *, enum TMemoryPropertyCheckType)
	?NewLC@CGlobalDialog@@SAPAV1@PAVMGlobalNoteCallback@@@Z @ 27 NONAME ; class CGlobalDialog * CGlobalDialog::NewLC(class MGlobalNoteCallback *)
	?NewLC@CGlobalProgressDialog@@SAPAV1@PAVMGlobalProgressCallback@@@Z @ 28 NONAME ; class CGlobalProgressDialog * CGlobalProgressDialog::NewLC(class MGlobalProgressCallback *)
	?NewLC@CObexUtilsDialog@@SAPAV1@PAVMObexUtilsDialogObserver@@@Z @ 29 NONAME ; class CObexUtilsDialog * CObexUtilsDialog::NewLC(class MObexUtilsDialogObserver *)
	?OperationNotSupported@TObexUtilsUiLayer@@SAHXZ @ 30 NONAME ; int TObexUtilsUiLayer::OperationNotSupported(void)
	?ProcessFinished@CGlobalDialog@@QAEXXZ @ 31 NONAME ; void CGlobalDialog::ProcessFinished(void)
	?ProcessFinished@CGlobalProgressDialog@@QAEXXZ @ 32 NONAME ; void CGlobalProgressDialog::ProcessFinished(void)
	?ReadResourceL@TObexUtilsUiLayer@@SAXAAVTDes16@@ABH@Z @ 33 NONAME ; void TObexUtilsUiLayer::ReadResourceL(class TDes16 &, int const &)
	?RemoveInboxEntriesL@TObexUtilsMessageHandler@@SAXAAPAVCObexBufObject@@J@Z @ 34 NONAME ; void TObexUtilsMessageHandler::RemoveInboxEntriesL(class CObexBufObject * &, long)
	?SaveObjToInboxL@TObexUtilsMessageHandler@@SAXAAPAVCObexBufObject@@AAVRFile@@J@Z @ 35 NONAME ; void TObexUtilsMessageHandler::SaveObjToInboxL(class CObexBufObject * &, class RFile &, long)
	?SaveObjToInboxL@TObexUtilsMessageHandler@@SAXPAVCObexBufObject@@ABVTDesC16@@VTUid@@@Z @ 36 NONAME ; void TObexUtilsMessageHandler::SaveObjToInboxL(class CObexBufObject *, class TDesC16 const &, class TUid)
	?ShowErrorDialogL@CGlobalDialog@@QAEXH@Z @ 37 NONAME ; void CGlobalDialog::ShowErrorDialogL(int)
	?ShowErrorNoteL@TObexUtilsUiLayer@@SAXABH@Z @ 38 NONAME ; void TObexUtilsUiLayer::ShowErrorNoteL(int const &)
	?ShowGlobalConfirmationQueryL@TObexUtilsUiLayer@@SAXABH@Z @ 39 NONAME ; void TObexUtilsUiLayer::ShowGlobalConfirmationQueryL(int const &)
	?ShowInformationNoteL@TObexUtilsUiLayer@@SAXABH@Z @ 40 NONAME ; void TObexUtilsUiLayer::ShowInformationNoteL(int const &)
	?ShowNoteDialogL@CGlobalDialog@@QAEXHH@Z @ 41 NONAME ; void CGlobalDialog::ShowNoteDialogL(int, int)
	?ShowNumberOfSendFileL@CObexUtilsDialog@@QAEXHH@Z @ 42 NONAME ; void CObexUtilsDialog::ShowNumberOfSendFileL(int, int)
	?ShowProgressDialogL@CGlobalProgressDialog@@QAEXH@Z @ 43 NONAME ; void CGlobalProgressDialog::ShowProgressDialogL(int)
	?UpdateBitmaps@TObexUtilsUiLayer@@SAXVTUid@@AAHAAV?$TBuf@$0BAA@@@11@Z @ 44 NONAME ; void TObexUtilsUiLayer::UpdateBitmaps(class TUid, int &, class TBuf<256> &, int &, int &)
	?UpdateProgressDialog@CGlobalProgressDialog@@QAEXHH@Z @ 45 NONAME ; void CGlobalProgressDialog::UpdateProgressDialog(int, int)
	?UpdateProgressDialogL@CObexUtilsDialog@@QAEXHH@Z @ 46 NONAME ; void CObexUtilsDialog::UpdateProgressDialogL(int, int)
	?ShowGlobalFileOpenConfirmationQueryL@TObexUtilsUiLayer@@SAHABHABVTDesC16@@@Z @ 47 NONAME ; int TObexUtilsUiLayer::ShowGlobalFileOpenConfirmationQueryL(int const &, class TDesC16 const &)
	?GetCenRepKeyStringValueL@TObexUtilsMessageHandler@@SAHVTUid@@KAAVTDes16@@@Z @ 48 NONAME ; int TObexUtilsMessageHandler::GetCenRepKeyStringValueL(class TUid, unsigned long, class TDes16 &)
	?LaunchEditorApplicationL@TObexUtilsUiLayer@@SAXAAJ@Z @ 49 NONAME ; void TObexUtilsUiLayer::LaunchEditorApplicationL(long &)
	?AddEntryToInboxL@TObexUtilsMessageHandler@@SAXAAJAAV?$TBuf@$0BAA@@@PAV?$RArray@J@@@Z @ 50 NONAME ; void TObexUtilsMessageHandler::AddEntryToInboxL(long &, class TBuf<256> &, class RArray<long> *)
	?ShowProgressDialogNameSizeL@CGlobalProgressDialog@@QAEXAAVTDesC16@@_J@Z @ 51 NONAME ; void CGlobalProgressDialog::ShowProgressDialogNameSizeL(class TDesC16 &, long long)
	?ShowGlobalConfirmationQueryPlainL@TObexUtilsUiLayer@@SAHABH@Z @ 52 NONAME ; int TObexUtilsUiLayer::ShowGlobalConfirmationQueryPlainL(int const &)
	?CreateReceiveBufferAndRFileL@TObexUtilsMessageHandler@@SAHAAVRFile@@ABVTDesC16@@AAV?$TBuf@$0BAA@@@AAPAVCBufFlat@@H@Z @ 53 NONAME ; int TObexUtilsMessageHandler::CreateReceiveBufferAndRFileL(class RFile &, class TDesC16 const &, class TBuf<256> &, class CBufFlat * &, int)
	?UpdateEntryAttachmentL@TObexUtilsMessageHandler@@SAXAAV?$TBuf@$0BAA@@@PAVCMsvEntry@@@Z @ 54 NONAME ; void TObexUtilsMessageHandler::UpdateEntryAttachmentL(class TBuf<256> &, class CMsvEntry *)
	?CreateInboxAttachmentL@TObexUtilsMessageHandler@@SAXAAPAVCObexBufObject@@VTUid@@AAJAAVRFile@@ABVTDesC16@@@Z @ 55 NONAME ; void TObexUtilsMessageHandler::CreateInboxAttachmentL(class CObexBufObject * &, class TUid, long &, class RFile &, class TDesC16 const &)
	?RemoveTemporaryRFileL@TObexUtilsMessageHandler@@SAXABV?$TBuf@$0BAA@@@@Z @ 56 NONAME ; void TObexUtilsMessageHandler::RemoveTemporaryRFileL(class TBuf<256> const &)
	?LaunchFileManagerL@TObexUtilsUiLayer@@SAXAAVTDesC16@@HH@Z @ 57 NONAME ; void TObexUtilsUiLayer::LaunchFileManagerL(class TDesC16 &, int, int)
	?SaveFileToFileSystemL@TObexUtilsMessageHandler@@SAXAAPAVCObexBufObject@@VTUid@@AAJAAV?$TBuf@$0BAA@@@AAVRFile@@ABVTDesC16@@@Z @ 58 NONAME ; void TObexUtilsMessageHandler::SaveFileToFileSystemL(class CObexBufObject * &, class TUid, long &, class TBuf<256> &, class RFile &, class TDesC16 const &)
	?AddEntryToInboxL@TObexUtilsMessageHandler@@SAXAAJAAV?$TBuf@$0BAA@@@@Z @ 59 NONAME ; void TObexUtilsMessageHandler::AddEntryToInboxL(long &, class TBuf<256> &)

